target datalayout = "e-m:e-p270:32:32-p271:32:32-p272:64:64-i64:64-i128:128-f80:128-n8:16:32:64-S128"
target triple = "x86_64-unknown-linux-gnu"

; Function Attrs: mustprogress nounwind uwtable
define internal noundef signext i8 @_ZL9U_SUCCESS10UErrorCode(i32 noundef %code) #0 {
entry:
  %code.addr = alloca i32, align 4
  store i32 %code, ptr %code.addr, align 4
  %0 = load i32, ptr %code.addr, align 4
  %cmp = icmp sle i32 %0, 0
  %conv = zext i1 %cmp to i8
  ret i8 %conv
}

; Function Attrs: mustprogress uwtable
define noundef ptr @_ZN6icu_7510DateFormat6createENS0_6EStyleES1_RKNS_6LocaleE(i32 noundef %timeStyle, i32 noundef %dateStyle, ptr noundef nonnull align 8 dereferenceable(217) %locale) #2 align 2 personality ptr @__gxx_personality_v0 {
entry:
  %retval = alloca ptr, align 8
  %timeStyle.addr = alloca i32, align 4
  %dateStyle.addr = alloca i32, align 4
  %locale.addr = alloca ptr, align 8
  %status = alloca i32, align 4
  %r = alloca ptr, align 8
  %saved-rvalue = alloca ptr, align 8
  %cleanup.cond = alloca i1, align 1
  %exn.slot = alloca ptr, align 8
  %ehselector.slot = alloca i32, align 4
  %f = alloca ptr, align 8
  %saved-rvalue9 = alloca ptr, align 8
  %cleanup.cond10 = alloca i1, align 1
  %saved-rvalue29 = alloca ptr, align 8
  %cleanup.cond30 = alloca i1, align 1
  store i32 %timeStyle, ptr %timeStyle.addr, align 4
  store i32 %dateStyle, ptr %dateStyle.addr, align 4
  store ptr %locale, ptr %locale.addr, align 8
  store i32 0, ptr %status, align 4
  %0 = load i32, ptr %dateStyle.addr, align 4
  %cmp = icmp ne i32 %0, -1
  br i1 %cmp, label %land.lhs.true, label %if.end5

land.lhs.true:                                    ; preds = %entry
  %1 = load i32, ptr %dateStyle.addr, align 4
  %sub = sub nsw i32 %1, 4
  %and = and i32 %sub, 128
  %tobool = icmp ne i32 %and, 0
  br i1 %tobool, label %if.then, label %if.end5

if.then:                                          ; preds = %land.lhs.true
  %call = call noundef ptr @_ZN6icu_757UMemorynwEm(i64 noundef 760) #7
  %new.isnull = icmp eq ptr %call, null
  store i1 false, ptr %cleanup.cond, align 1
  br i1 %new.isnull, label %new.cont, label %new.notnull

new.notnull:                                      ; preds = %if.then
  store ptr %call, ptr %saved-rvalue, align 8
  store i1 true, ptr %cleanup.cond, align 1
  %2 = load i32, ptr %timeStyle.addr, align 4
  %3 = load i32, ptr %dateStyle.addr, align 4
  %sub1 = sub nsw i32 %3, 4
  %4 = load ptr, ptr %locale.addr, align 8
  invoke void @_ZN6icu_7518RelativeDateFormatC1E16UDateFormatStyleS1_RKNS_6LocaleER10UErrorCode(ptr noundef nonnull align 8 dereferenceable(760) %call, i32 noundef %2, i32 noundef %sub1, ptr noundef nonnull align 8 dereferenceable(217) %4, ptr noundef nonnull align 4 dereferenceable(4) %status)
          to label %invoke.cont unwind label %lpad

invoke.cont:                                      ; preds = %new.notnull
  br label %new.cont

new.cont:                                         ; preds = %invoke.cont, %if.then
  %5 = phi ptr [ %call, %invoke.cont ], [ null, %if.then ]
  store ptr %5, ptr %r, align 8
  %6 = load i32, ptr %status, align 4
  %call2 = call noundef signext i8 @_ZL9U_SUCCESS10UErrorCode(i32 noundef %6)
  %tobool3 = icmp ne i8 %call2, 0
  br i1 %tobool3, label %if.then4, label %if.end

if.then4:                                         ; preds = %new.cont
  %7 = load ptr, ptr %r, align 8
  store ptr %7, ptr %retval, align 8
  br label %return

lpad:                                             ; preds = %new.notnull
  %8 = landingpad { ptr, i32 }
          cleanup
  %9 = extractvalue { ptr, i32 } %8, 0
  store ptr %9, ptr %exn.slot, align 8
  %10 = extractvalue { ptr, i32 } %8, 1
  store i32 %10, ptr %ehselector.slot, align 4
  %cleanup.is_active = load i1, ptr %cleanup.cond, align 1
  br i1 %cleanup.is_active, label %cleanup.action, label %cleanup.done

cleanup.action:                                   ; preds = %lpad
  %11 = load ptr, ptr %saved-rvalue, align 8
  call void @_ZN6icu_757UMemorydlEPv(ptr noundef %11) #7
  br label %cleanup.done

cleanup.done:                                     ; preds = %cleanup.action, %lpad
  br label %eh.resume

if.end:                                           ; preds = %new.cont
  %12 = load ptr, ptr %r, align 8
  %isnull = icmp eq ptr %12, null
  br i1 %isnull, label %delete.end, label %delete.notnull

delete.notnull:                                   ; preds = %if.end
  %vtable = load ptr, ptr %12, align 8
  %vfn = getelementptr inbounds ptr, ptr %vtable, i64 1
  %13 = load ptr, ptr %vfn, align 8
  call void %13(ptr noundef nonnull align 8 dereferenceable(760) %12) #7
  br label %delete.end

delete.end:                                       ; preds = %delete.notnull, %if.end
  store i32 0, ptr %status, align 4
  br label %if.end5

if.end5:                                          ; preds = %delete.end, %land.lhs.true, %entry
  %call6 = call noundef ptr @_ZN6icu_757UMemorynwEm(i64 noundef 832) #7
  %new.isnull7 = icmp eq ptr %call6, null
  store i1 false, ptr %cleanup.cond10, align 1
  br i1 %new.isnull7, label %new.cont16, label %new.notnull8

new.notnull8:                                     ; preds = %if.end5
  store ptr %call6, ptr %saved-rvalue9, align 8
  store i1 true, ptr %cleanup.cond10, align 1
  %14 = load i32, ptr %timeStyle.addr, align 4
  %15 = load i32, ptr %dateStyle.addr, align 4
  %16 = load ptr, ptr %locale.addr, align 8
  invoke void @_ZN6icu_7516SimpleDateFormatC1ENS_10DateFormat6EStyleES2_RKNS_6LocaleER10UErrorCode(ptr noundef nonnull align 8 dereferenceable(832) %call6, i32 noundef %14, i32 noundef %15, ptr noundef nonnull align 8 dereferenceable(217) %16, ptr noundef nonnull align 4 dereferenceable(4) %status)
          to label %invoke.cont12 unwind label %lpad11

invoke.cont12:                                    ; preds = %new.notnull8
  br label %new.cont16

new.cont16:                                       ; preds = %invoke.cont12, %if.end5
  %17 = phi ptr [ %call6, %invoke.cont12 ], [ null, %if.end5 ]
  store ptr %17, ptr %f, align 8
  %18 = load i32, ptr %status, align 4
  %call17 = call noundef signext i8 @_ZL9U_SUCCESS10UErrorCode(i32 noundef %18)
  %tobool18 = icmp ne i8 %call17, 0
  br i1 %tobool18, label %if.then19, label %if.end20

if.then19:                                        ; preds = %new.cont16
  %19 = load ptr, ptr %f, align 8
  store ptr %19, ptr %retval, align 8
  br label %return

lpad11:                                           ; preds = %new.notnull8
  %20 = landingpad { ptr, i32 }
          cleanup
  %21 = extractvalue { ptr, i32 } %20, 0
  store ptr %21, ptr %exn.slot, align 8
  %22 = extractvalue { ptr, i32 } %20, 1
  store i32 %22, ptr %ehselector.slot, align 4
  %cleanup.is_active13 = load i1, ptr %cleanup.cond10, align 1
  br i1 %cleanup.is_active13, label %cleanup.action14, label %cleanup.done15

cleanup.action14:                                 ; preds = %lpad11
  %23 = load ptr, ptr %saved-rvalue9, align 8
  call void @_ZN6icu_757UMemorydlEPv(ptr noundef %23) #7
  br label %cleanup.done15

cleanup.done15:                                   ; preds = %cleanup.action14, %lpad11
  br label %eh.resume

if.end20:                                         ; preds = %new.cont16
  %24 = load ptr, ptr %f, align 8
  %isnull21 = icmp eq ptr %24, null
  br i1 %isnull21, label %delete.end25, label %delete.notnull22

delete.notnull22:                                 ; preds = %if.end20
  %vtable23 = load ptr, ptr %24, align 8
  %vfn24 = getelementptr inbounds ptr, ptr %vtable23, i64 1
  %25 = load ptr, ptr %vfn24, align 8
  call void %25(ptr noundef nonnull align 8 dereferenceable(832) %24) #7
  br label %delete.end25

delete.end25:                                     ; preds = %delete.notnull22, %if.end20
  store i32 0, ptr %status, align 4
  %call26 = call noundef ptr @_ZN6icu_757UMemorynwEm(i64 noundef 832) #7
  %new.isnull27 = icmp eq ptr %call26, null
  store i1 false, ptr %cleanup.cond30, align 1
  br i1 %new.isnull27, label %new.cont36, label %new.notnull28

new.notnull28:                                    ; preds = %delete.end25
  store ptr %call26, ptr %saved-rvalue29, align 8
  store i1 true, ptr %cleanup.cond30, align 1
  %26 = load ptr, ptr %locale.addr, align 8
  invoke void @_ZN6icu_7516SimpleDateFormatC1ERKNS_6LocaleER10UErrorCode(ptr noundef nonnull align 8 dereferenceable(832) %call26, ptr noundef nonnull align 8 dereferenceable(217) %26, ptr noundef nonnull align 4 dereferenceable(4) %status)
          to label %invoke.cont32 unwind label %lpad31

invoke.cont32:                                    ; preds = %new.notnull28
  br label %new.cont36

new.cont36:                                       ; preds = %invoke.cont32, %delete.end25
  %27 = phi ptr [ %call26, %invoke.cont32 ], [ null, %delete.end25 ]
  store ptr %27, ptr %f, align 8
  %28 = load i32, ptr %status, align 4
  %call37 = call noundef signext i8 @_ZL9U_SUCCESS10UErrorCode(i32 noundef %28)
  %tobool38 = icmp ne i8 %call37, 0
  br i1 %tobool38, label %if.then39, label %if.end40

if.then39:                                        ; preds = %new.cont36
  %29 = load ptr, ptr %f, align 8
  store ptr %29, ptr %retval, align 8
  br label %return

lpad31:                                           ; preds = %new.notnull28
  %30 = landingpad { ptr, i32 }
          cleanup
  %31 = extractvalue { ptr, i32 } %30, 0
  store ptr %31, ptr %exn.slot, align 8
  %32 = extractvalue { ptr, i32 } %30, 1
  store i32 %32, ptr %ehselector.slot, align 4
  %cleanup.is_active33 = load i1, ptr %cleanup.cond30, align 1
  br i1 %cleanup.is_active33, label %cleanup.action34, label %cleanup.done35

cleanup.action34:                                 ; preds = %lpad31
  %33 = load ptr, ptr %saved-rvalue29, align 8
  call void @_ZN6icu_757UMemorydlEPv(ptr noundef %33) #7
  br label %cleanup.done35

cleanup.done35:                                   ; preds = %cleanup.action34, %lpad31
  br label %eh.resume

if.end40:                                         ; preds = %new.cont36
  %34 = load ptr, ptr %f, align 8
  %isnull41 = icmp eq ptr %34, null
  br i1 %isnull41, label %delete.end45, label %delete.notnull42

delete.notnull42:                                 ; preds = %if.end40
  %vtable43 = load ptr, ptr %34, align 8
  %vfn44 = getelementptr inbounds ptr, ptr %vtable43, i64 1
  %35 = load ptr, ptr %vfn44, align 8
  call void %35(ptr noundef nonnull align 8 dereferenceable(832) %34) #7
  br label %delete.end45

delete.end45:                                     ; preds = %delete.notnull42, %if.end40
  store ptr null, ptr %retval, align 8
  br label %return

return:                                           ; preds = %delete.end45, %if.then39, %if.then19, %if.then4
  %36 = load ptr, ptr %retval, align 8
  ret ptr %36

eh.resume:                                        ; preds = %cleanup.done35, %cleanup.done15, %cleanup.done
  %exn = load ptr, ptr %exn.slot, align 8
  %sel = load i32, ptr %ehselector.slot, align 4
  %lpad.val = insertvalue { ptr, i32 } poison, ptr %exn, 0
  %lpad.val46 = insertvalue { ptr, i32 } %lpad.val, i32 %sel, 1
  resume { ptr, i32 } %lpad.val46
}