; Function Attrs: mustprogress uwtable
define noundef ptr @_ZN6icu_7510DateFormat6createENS0_6EStyleES1_RKNS_6LocaleE(i32 noundef %timeStyle, i32 noundef %dateStyle, ptr noundef nonnull align 8 dereferenceable(217) %locale) local_unnamed_addr #3 align 2 personality ptr @__gxx_personality_v0 {
entry:
  %status = alloca i32, align 4
  store i32 0, ptr %status, align 4
  %cmp.not = icmp eq i32 %dateStyle, -1
  br i1 %cmp.not, label %if.end5, label %land.lhs.true

land.lhs.true:                                    ; preds = %entry
  %sub = add nsw i32 %dateStyle, -4
  %and = and i32 %sub, 128
  %tobool.not = icmp eq i32 %and, 0
  br i1 %tobool.not, label %if.end5, label %if.then

if.then:                                          ; preds = %land.lhs.true
  %call = tail call noundef ptr @_ZN6icu_757UMemorynwEm(i64 noundef 760) #13
  %new.isnull = icmp eq ptr %call, null
  br i1 %new.isnull, label %return, label %new.notnull

new.notnull:                                      ; preds = %if.then
  invoke void @_ZN6icu_7518RelativeDateFormatC1E16UDateFormatStyleS1_RKNS_6LocaleER10UErrorCode(ptr noundef nonnull align 8 dereferenceable(760) %call, i32 noundef %timeStyle, i32 noundef %sub, ptr noundef nonnull align 8 dereferenceable(217) %locale, ptr noundef nonnull align 4 dereferenceable(4) %status)
          to label %new.cont unwind label %lpad

new.cont:                                         ; preds = %new.notnull
  %0 = load i32, ptr %status, align 4
  %cmp.i = icmp sgt i32 %0, 0
  br i1 %cmp.i, label %delete.end, label %return

lpad:                                             ; preds = %new.notnull
  %1 = landingpad { ptr, i32 }
          cleanup
  br label %eh.resume

delete.end:                                       ; preds = %new.cont
  %vtable = load ptr, ptr %call, align 8
  %vfn = getelementptr inbounds i8, ptr %vtable, i64 8
  %2 = load ptr, ptr %vfn, align 8
  call void %2(ptr noundef nonnull align 8 dereferenceable(760) %call) #13
  store i32 0, ptr %status, align 4
  br label %if.end5

if.end5:                                          ; preds = %delete.end, %land.lhs.true, %entry
  %call6 = call noundef ptr @_ZN6icu_757UMemorynwEm(i64 noundef 832) #13
  %new.isnull7 = icmp eq ptr %call6, null
  br i1 %new.isnull7, label %new.cont16.thread, label %new.notnull8

new.notnull8:                                     ; preds = %if.end5
  invoke void @_ZN6icu_7516SimpleDateFormatC1ENS_10DateFormat6EStyleES2_RKNS_6LocaleER10UErrorCode(ptr noundef nonnull align 8 dereferenceable(832) %call6, i32 noundef %timeStyle, i32 noundef %dateStyle, ptr noundef nonnull align 8 dereferenceable(217) %locale, ptr noundef nonnull align 4 dereferenceable(4) %status)
          to label %new.cont16 unwind label %lpad11

new.cont16:                                       ; preds = %new.notnull8
  %3 = load i32, ptr %status, align 4
  %cmp.i14 = icmp sgt i32 %3, 0
  br i1 %cmp.i14, label %delete.notnull22, label %return

new.cont16.thread:                                ; preds = %if.end5
  %4 = load i32, ptr %status, align 4
  %cmp.i1423 = icmp sgt i32 %4, 0
  br i1 %cmp.i1423, label %delete.end25, label %return

lpad11:                                           ; preds = %new.notnull8
  %5 = landingpad { ptr, i32 }
          cleanup
  br label %eh.resume

delete.notnull22:                                 ; preds = %new.cont16
  %vtable23 = load ptr, ptr %call6, align 8
  %vfn24 = getelementptr inbounds i8, ptr %vtable23, i64 8
  %6 = load ptr, ptr %vfn24, align 8
  call void %6(ptr noundef nonnull align 8 dereferenceable(832) %call6) #13
  br label %delete.end25

delete.end25:                                     ; preds = %new.cont16.thread, %delete.notnull22
  store i32 0, ptr %status, align 4
  %call26 = call noundef ptr @_ZN6icu_757UMemorynwEm(i64 noundef 832) #13
  %new.isnull27 = icmp eq ptr %call26, null
  br i1 %new.isnull27, label %return, label %new.notnull28

new.notnull28:                                    ; preds = %delete.end25
  invoke void @_ZN6icu_7516SimpleDateFormatC1ERKNS_6LocaleER10UErrorCode(ptr noundef nonnull align 8 dereferenceable(832) %call26, ptr noundef nonnull align 8 dereferenceable(217) %locale, ptr noundef nonnull align 4 dereferenceable(4) %status)
          to label %new.cont36 unwind label %lpad31

new.cont36:                                       ; preds = %new.notnull28
  %7 = load i32, ptr %status, align 4
  %cmp.i16 = icmp sgt i32 %7, 0
  br i1 %cmp.i16, label %delete.notnull42, label %return

lpad31:                                           ; preds = %new.notnull28
  %8 = landingpad { ptr, i32 }
          cleanup
  br label %eh.resume

delete.notnull42:                                 ; preds = %new.cont36
  %vtable43 = load ptr, ptr %call26, align 8
  %vfn44 = getelementptr inbounds i8, ptr %vtable43, i64 8
  %9 = load ptr, ptr %vfn44, align 8
  call void %9(ptr noundef nonnull align 8 dereferenceable(832) %call26) #13
  br label %return

return:                                           ; preds = %if.then, %delete.end25, %new.cont16.thread, %delete.notnull42, %new.cont36, %new.cont16, %new.cont
  %retval.0 = phi ptr [ %call, %new.cont ], [ %call6, %new.cont16 ], [ %call26, %new.cont36 ], [ null, %delete.notnull42 ], [ null, %new.cont16.thread ], [ null, %delete.end25 ], [ null, %if.then ]
  ret ptr %retval.0

eh.resume:                                        ; preds = %lpad31, %lpad11, %lpad
  %call26.sink = phi ptr [ %call26, %lpad31 ], [ %call6, %lpad11 ], [ %call, %lpad ]
  %.pn = phi { ptr, i32 } [ %8, %lpad31 ], [ %5, %lpad11 ], [ %1, %lpad ]
  call void @_ZN6icu_757UMemorydlEPv(ptr noundef nonnull %call26.sink) #13
  resume { ptr, i32 } %.pn
}